(dp0
I0
(dp1
S'xmlFile'
p2
S'http://192.168.1.115:49153/setup.xml'
p3
sS'name'
p4
S'192.168.1.115:49153'
p5
sS'proto'
p6
S'http://'
p7
sS'deviceList'
p8
(dp9
sS'serverType'
p10
NsS'upnpServer'
p11
S'Linux/2.6.21, UPnP/1.0, Portable SDK for UPnP devices/1.6.6'
p12
sS'dataComplete'
p13
I00
ss.
